; Function Attrs: nounwind uwtable
define dso_local noundef zeroext i1 @get_opclass_opfamily_and_input_type(i32 noundef %0, ptr noundef writeonly captures(none) %1, ptr noundef writeonly captures(none) %2) local_unnamed_addr #0 {
  %4 = zext i32 %0 to i64
  %5 = tail call ptr @SearchSysCache1(i32 noundef 14, i64 noundef %4) #8
  %.not = icmp ne ptr %5, null
  br i1 %.not, label %6, label %16

6:                                                ; preds = %3
  %7 = getelementptr i8, ptr %5, i64 16
  %.val = load ptr, ptr %7, align 8
  %8 = getelementptr inbounds nuw i8, ptr %.val, i64 22
  %9 = load i8, ptr %8, align 2
  %10 = zext i8 %9 to i64
  %11 = getelementptr inbounds nuw i8, ptr %.val, i64 %10
  %12 = getelementptr inbounds nuw i8, ptr %11, i64 80
  %13 = load i32, ptr %12, align 4
  store i32 %13, ptr %1, align 4
  %14 = getelementptr inbounds nuw i8, ptr %11, i64 84
  %15 = load i32, ptr %14, align 4
  store i32 %15, ptr %2, align 4
  tail call void @ReleaseSysCache(ptr noundef nonnull %5) #8
  br label %16

16:                                               ; preds = %3, %6
  ret i1 %.not
}